target datalayout = "e-m:e-p270:32:32-p271:32:32-p272:64:64-i64:64-i128:128-f80:128-n8:16:32:64-S128"
target triple = "x86_64-pc-linux-gnu"

%"class.std::__cxx11::basic_string" = type { %"struct.std::__cxx11::basic_string<char>::_Alloc_hider", i64, %union.anon }
%"struct.std::__cxx11::basic_string<char>::_Alloc_hider" = type { ptr }
%union.anon = type { i64, [8 x i8] }
%"class.llvm::SmallVectorBase" = type { ptr, i32, i32 }
%"class.llvm::StringMapImpl" = type { ptr, i32, i32, i32, i32 }
%"class.llvm::FoldingSetBase" = type { ptr, i32, i32 }
%"class.(anonymous namespace)::SarifDiagnostics" = type { %"class.clang::ento::PathDiagnosticConsumer", %"class.std::__cxx11::basic_string", ptr, %"class.clang::SarifDocumentWriter" }
%"class.clang::ento::PathDiagnosticConsumer" = type { ptr, i8, %"class.llvm::FoldingSet" }
%"class.llvm::FoldingSet" = type { %"class.llvm::FoldingSetImpl" }
%"class.llvm::FoldingSetImpl" = type { %"class.llvm::FoldingSetBase" }
%"class.clang::SarifDocumentWriter" = type { %"class.llvm::StringRef", %"class.llvm::StringRef", ptr, i8, %"class.llvm::json::Array", %"class.llvm::SmallVector", %"class.llvm::StringMap" }
%"class.llvm::StringRef" = type { ptr, i64 }
%"class.llvm::json::Array" = type { %"class.std::vector.3" }
%"class.std::vector.3" = type { %"struct.std::_Vector_base.4" }
%"struct.std::_Vector_base.4" = type { %"struct.std::_Vector_base<llvm::json::Value, std::allocator<llvm::json::Value>>::_Vector_impl" }
%"struct.std::_Vector_base<llvm::json::Value, std::allocator<llvm::json::Value>>::_Vector_impl" = type { %"struct.std::_Vector_base<llvm::json::Value, std::allocator<llvm::json::Value>>::_Vector_impl_data" }
%"struct.std::_Vector_base<llvm::json::Value, std::allocator<llvm::json::Value>>::_Vector_impl_data" = type { ptr, ptr, ptr }
%"class.llvm::SmallVector" = type { %"class.llvm::SmallVectorImpl", %"struct.llvm::SmallVectorStorage" }
%"class.llvm::SmallVectorImpl" = type { %"class.llvm::SmallVectorTemplateBase" }
%"class.llvm::SmallVectorTemplateBase" = type { %"class.llvm::SmallVectorTemplateCommon" }
%"class.llvm::SmallVectorTemplateCommon" = type { %"class.llvm::SmallVectorBase" }
%"struct.llvm::SmallVectorStorage" = type { [4608 x i8] }
%"class.llvm::StringMap" = type { %"class.llvm::StringMapImpl" }

; Function Attrs: mustprogress nounwind uwtable
define internal void @_ZN12_GLOBAL__N_116SarifDiagnosticsD2Ev(ptr noundef nonnull align 8 dereferenceable(4792) %0) unnamed_addr #0 align 2 {
  %2 = alloca ptr, align 8
  store ptr %0, ptr %2, align 8
  %3 = load ptr, ptr %2, align 8
  store ptr getelementptr inbounds inrange(-16, 64) ({ [10 x ptr] }, ptr @_ZTVN12_GLOBAL__N_116SarifDiagnosticsE, i32 0, i32 0, i32 2), ptr %3, align 8
  %4 = getelementptr inbounds nuw %"class.(anonymous namespace)::SarifDiagnostics", ptr %3, i32 0, i32 3
  call void @_ZN5clang19SarifDocumentWriterD2Ev(ptr noundef nonnull align 8 dereferenceable(4720) %4) #10
  %5 = getelementptr inbounds nuw %"class.(anonymous namespace)::SarifDiagnostics", ptr %3, i32 0, i32 1
  call void @_ZNSt7__cxx1112basic_stringIcSt11char_traitsIcESaIcEED1Ev(ptr noundef nonnull align 8 dereferenceable(32) %5) #10
  call void @_ZN5clang4ento22PathDiagnosticConsumerD2Ev(ptr noundef nonnull align 8 dereferenceable(32) %3) #10
  ret void
}

; Function Attrs: mustprogress nounwind uwtable
define internal void @_ZN12_GLOBAL__N_116SarifDiagnosticsD0Ev(ptr noundef nonnull align 8 dereferenceable(4792) %0) unnamed_addr #0 align 2 {
  %2 = alloca ptr, align 8
  store ptr %0, ptr %2, align 8
  %3 = load ptr, ptr %2, align 8
  call void @_ZN12_GLOBAL__N_116SarifDiagnosticsD2Ev(ptr noundef nonnull align 8 dereferenceable(4792) %3) #10
  call void @_ZdlPvm(ptr noundef %3, i64 noundef 4792) #12
  ret void
}